; Function Attrs: nounwind uwtable
define ptr @l_List_filterMapTR_go___at_Lean_Elab_Tactic_Conv_evalCongr___spec__1(ptr noundef %0, ptr noundef %1) local_unnamed_addr #1 {
  br label %lean_dec.exit23.outer

lean_dec.exit23.outer:                            ; preds = %lean_dec.exit, %2
  %.020.ph = phi ptr [ %80, %lean_dec.exit ], [ %1, %2 ]
  %.0.ph = phi ptr [ %32, %lean_dec.exit ], [ %0, %2 ]
  br label %lean_dec.exit23

lean_dec.exit23:                                  ; preds = %lean_dec.exit23.backedge, %lean_dec.exit23.outer
  %.0 = phi ptr [ %.0.ph, %lean_dec.exit23.outer ], [ %32, %lean_dec.exit23.backedge ]
  %3 = ptrtoint ptr %.0 to i64
  %4 = and i64 %3, 1
  %.not.i31 = icmp eq i64 %4, 0
  br i1 %.not.i31, label %8, label %5

5:                                                ; preds = %lean_dec.exit23
  %6 = lshr i64 %3, 1
  %7 = trunc i64 %6 to i32
  br label %lean_obj_tag.exit

8:                                                ; preds = %lean_dec.exit23
  %9 = getelementptr i8, ptr %.0, i64 4
  %.val.i = load i32, ptr %9, align 4
  %10 = lshr i32 %.val.i, 24
  br label %lean_obj_tag.exit

lean_obj_tag.exit:                                ; preds = %5, %8
  %.0.i = phi i32 [ %7, %5 ], [ %10, %8 ]
  %11 = icmp eq i32 %.0.i, 0
  br i1 %11, label %12, label %14

12:                                               ; preds = %lean_obj_tag.exit
  %13 = tail call ptr @lean_array_to_list(ptr noundef %.020.ph) #4
  ret ptr %13

14:                                               ; preds = %lean_obj_tag.exit
  %15 = getelementptr inbounds nuw i8, ptr %.0, i64 8
  %16 = load ptr, ptr %15, align 8, !tbaa !11
  %17 = ptrtoint ptr %16 to i64
  %18 = and i64 %17, 1
  %.not = icmp eq i64 %18, 0
  br i1 %.not, label %19, label %lean_inc.exit26

19:                                               ; preds = %14
  %.val.i32 = load i32, ptr %16, align 4, !tbaa !6
  %20 = icmp sgt i32 %.val.i32, 0
  br i1 %20, label %21, label %23, !prof !5

21:                                               ; preds = %19
  %22 = add nuw i32 %.val.i32, 1
  store i32 %22, ptr %16, align 4, !tbaa !6
  br label %27

23:                                               ; preds = %19
  %.not.i33 = icmp eq i32 %.val.i32, 0
  br i1 %.not.i33, label %27, label %24

24:                                               ; preds = %23
  tail call void @lean_inc_ref_cold(ptr noundef nonnull %16) #4
  br label %27

lean_inc.exit26:                                  ; preds = %14
  %25 = lshr i64 %17, 1
  %26 = trunc i64 %25 to i32
  br label %lean_obj_tag.exit37

27:                                               ; preds = %24, %23, %21
  %28 = getelementptr i8, ptr %16, i64 4
  %.val.i36 = load i32, ptr %28, align 4
  %29 = lshr i32 %.val.i36, 24
  br label %lean_obj_tag.exit37

lean_obj_tag.exit37:                              ; preds = %lean_inc.exit26, %27
  %.0.i35 = phi i32 [ %26, %lean_inc.exit26 ], [ %29, %27 ]
  %30 = icmp eq i32 %.0.i35, 0
  %31 = getelementptr inbounds nuw i8, ptr %.0, i64 16
  %32 = load ptr, ptr %31, align 8, !tbaa !11
  %33 = ptrtoint ptr %32 to i64
  %34 = and i64 %33, 1
  %.not51 = icmp eq i64 %34, 0
  br i1 %30, label %35, label %49

35:                                               ; preds = %lean_obj_tag.exit37
  br i1 %.not51, label %36, label %lean_inc.exit25

36:                                               ; preds = %35
  %.val.i38 = load i32, ptr %32, align 4, !tbaa !6
  %37 = icmp sgt i32 %.val.i38, 0
  br i1 %37, label %38, label %40, !prof !5

38:                                               ; preds = %36
  %39 = add nuw i32 %.val.i38, 1
  store i32 %39, ptr %32, align 4, !tbaa !6
  br label %lean_inc.exit25

40:                                               ; preds = %36
  %.not.i39 = icmp eq i32 %.val.i38, 0
  br i1 %.not.i39, label %lean_inc.exit25, label %41

41:                                               ; preds = %40
  tail call void @lean_inc_ref_cold(ptr noundef nonnull %32) #4
  br label %lean_inc.exit25

lean_inc.exit25:                                  ; preds = %41, %40, %38, %35
  br i1 %.not.i31, label %42, label %lean_dec.exit23.backedge

lean_dec.exit23.backedge:                         ; preds = %lean_inc.exit25, %45, %47, %48
  br label %lean_dec.exit23

42:                                               ; preds = %lean_inc.exit25
  %43 = load i32, ptr %.0, align 4, !tbaa !6
  %44 = icmp sgt i32 %43, 1
  br i1 %44, label %45, label %47, !prof !5

45:                                               ; preds = %42
  %46 = add nsw i32 %43, -1
  store i32 %46, ptr %.0, align 4, !tbaa !6
  br label %lean_dec.exit23.backedge

47:                                               ; preds = %42
  %.not.i = icmp eq i32 %43, 0
  br i1 %.not.i, label %lean_dec.exit23.backedge, label %48

48:                                               ; preds = %47
  tail call void @lean_dec_ref_cold(ptr noundef nonnull %.0) #4
  br label %lean_dec.exit23.backedge

49:                                               ; preds = %lean_obj_tag.exit37
  br i1 %.not51, label %50, label %lean_inc.exit24

50:                                               ; preds = %49
  %.val.i41 = load i32, ptr %32, align 4, !tbaa !6
  %51 = icmp sgt i32 %.val.i41, 0
  br i1 %51, label %52, label %54, !prof !5

52:                                               ; preds = %50
  %53 = add nuw i32 %.val.i41, 1
  store i32 %53, ptr %32, align 4, !tbaa !6
  br label %lean_inc.exit24

54:                                               ; preds = %50
  %.not.i42 = icmp eq i32 %.val.i41, 0
  br i1 %.not.i42, label %lean_inc.exit24, label %55

55:                                               ; preds = %54
  tail call void @lean_inc_ref_cold(ptr noundef nonnull %32) #4
  br label %lean_inc.exit24

lean_inc.exit24:                                  ; preds = %55, %54, %52, %49
  br i1 %.not.i31, label %56, label %lean_dec.exit22

56:                                               ; preds = %lean_inc.exit24
  %57 = load i32, ptr %.0, align 4, !tbaa !6
  %58 = icmp sgt i32 %57, 1
  br i1 %58, label %59, label %61, !prof !5

59:                                               ; preds = %56
  %60 = add nsw i32 %57, -1
  store i32 %60, ptr %.0, align 4, !tbaa !6
  br label %lean_dec.exit22

61:                                               ; preds = %56
  %.not.i27 = icmp eq i32 %57, 0
  br i1 %.not.i27, label %lean_dec.exit22, label %62

62:                                               ; preds = %61
  tail call void @lean_dec_ref_cold(ptr noundef nonnull %.0) #4
  br label %lean_dec.exit22

lean_dec.exit22:                                  ; preds = %62, %61, %59, %lean_inc.exit24
  %63 = getelementptr inbounds nuw i8, ptr %16, i64 8
  %64 = load ptr, ptr %63, align 8, !tbaa !11
  %65 = ptrtoint ptr %64 to i64
  %66 = and i64 %65, 1
  %.not50 = icmp eq i64 %66, 0
  br i1 %.not50, label %67, label %lean_inc.exit

67:                                               ; preds = %lean_dec.exit22
  %.val.i44 = load i32, ptr %64, align 4, !tbaa !6
  %68 = icmp sgt i32 %.val.i44, 0
  br i1 %68, label %69, label %71, !prof !5

69:                                               ; preds = %67
  %70 = add nuw i32 %.val.i44, 1
  store i32 %70, ptr %64, align 4, !tbaa !6
  br label %lean_inc.exit

71:                                               ; preds = %67
  %.not.i45 = icmp eq i32 %.val.i44, 0
  br i1 %.not.i45, label %lean_inc.exit, label %72

72:                                               ; preds = %71
  tail call void @lean_inc_ref_cold(ptr noundef nonnull %64) #4
  br label %lean_inc.exit

lean_inc.exit:                                    ; preds = %72, %71, %69, %lean_dec.exit22
  br i1 %.not, label %73, label %lean_dec.exit

73:                                               ; preds = %lean_inc.exit
  %74 = load i32, ptr %16, align 4, !tbaa !6
  %75 = icmp sgt i32 %74, 1
  br i1 %75, label %76, label %78, !prof !5

76:                                               ; preds = %73
  %77 = add nsw i32 %74, -1
  store i32 %77, ptr %16, align 4, !tbaa !6
  br label %lean_dec.exit

78:                                               ; preds = %73
  %.not.i29 = icmp eq i32 %74, 0
  br i1 %.not.i29, label %lean_dec.exit, label %79

79:                                               ; preds = %78
  tail call void @lean_dec_ref_cold(ptr noundef nonnull %16) #4
  br label %lean_dec.exit

lean_dec.exit:                                    ; preds = %79, %78, %76, %lean_inc.exit
  %80 = tail call ptr @lean_array_push(ptr noundef %.020.ph, ptr noundef %64) #4
  br label %lean_dec.exit23.outer
}